(lp0
(lp1
cnumpy.core.multiarray
scalar
p2
(cnumpy
dtype
p3
(S'f8'
p4
I0
I1
tp5
Rp6
(I3
S'<'
p7
NNNI-1
I-1
I0
tp8
bS'DDD\x84\xa9?\xe6?'
p9
tp10
Rp11
ag2
(g6
S'\xde\xdd\xdd\xbd\t\x15\xe5?'
p12
tp13
Rp14
ag2
(g6
S'\x89\x88\x88\x98g\xc0\xe2?'
p15
tp16
Rp17
aa(lp18
g2
(g6
S'%I\x92\xe4\x0b\x15\xe5?'
p19
tp20
Rp21
ag2
(g6
S'\xb7m\xdb\xd6\xda\xbe\xe2?'
p22
tp23
Rp24
ag2
(g6
S'n\xdb\xb6-\x89\xe0\xdb?'
p25
tp26
Rp27
aa(lp28
F0.020571922837785687
aF0.020571922837785687
aF0.02057209033703529
aa(lp29
F0.019097850337674867
aF0.019097850337674867
aF0.055799892466634506
aa.