(lp0
(lp1
cnumpy.core.multiarray
scalar
p2
(cnumpy
dtype
p3
(S'f8'
p4
I0
I1
tp5
Rp6
(I3
S'<'
p7
NNNI-1
I-1
I0
tp8
bS'\xab\xaa\xaaZ\x8a\xf3\xe5?'
p9
tp10
Rp11
ag2
(g6
S'\x00\x00\x00\xb08\xa4\xc6?'
p12
tp13
Rp14
ag2
(g6
S'\xcd\xcc\xcc\x9c|\x85\xc7?'
p15
tp16
Rp17
ag2
(g6
S'\x11\x11\x11\xb1\xa7M\xc7?'
p18
tp19
Rp20
aa(lp21
g2
(g6
S'n\xdb\xb6\xad\x0cw\xc6?'
p22
tp23
Rp24
ag2
(g6
S'\x92$IR|\x04\xc7?'
p25
tp26
Rp27
ag2
(g6
S'\x92$IrQ{\xc6?'
p28
tp29
Rp30
ag2
(g6
S'\xb7m\xdb6\xa7\x81\xc5?'
p31
tp32
Rp33
aa(lp34
F0.020571922837785687
aF0.9131079217765105
aF0.9793632549526178
aF0.979361077462373
aa(lp35
F0.91108711710082
aF0.9808449911561344
aF0.9807118306801736
aF0.9654241286782441
aa.