(lp0
(lp1
cnumpy.core.multiarray
scalar
p2
(cnumpy
dtype
p3
(S'f8'
p4
I0
I1
tp5
Rp6
(I3
S'<'
p7
NNNI-1
I-1
I0
tp8
bS'DDD\x84\xa9?\xe6?'
p9
tp10
Rp11
ag2
(g6
S'\xde\xdd\xdd\xbd\t\x15\xe5?'
p12
tp13
Rp14
ag2
(g6
S'\x89\x88\x88\x98g\xc0\xe2?'
p15
tp16
Rp17
ag2
(g6
S'\xde\xdd\xdd]\xdd\xf2\xdb?'
p18
tp19
Rp20
ag2
(g6
S'\xef\xee\xeen/\xce\xd0?'
p21
tp22
Rp23
ag2
(g6
S'DDDt\xc9\x1b\xc5?'
p24
tp25
Rp26
ag2
(g6
S'\x89\x88\x88\xb8\x96w\xbf?'
p27
tp28
Rp29
ag2
(g6
S'\xbc\xbb\xbb{Z\x02\xbb?'
p30
tp31
Rp32
ag2
(g6
S'UUUu\x144\xb9?'
p33
tp34
Rp35
aa(lp36
g2
(g6
S'%I\x92\xe4\x0b\x15\xe5?'
p37
tp38
Rp39
ag2
(g6
S'\xb7m\xdb\xd6\xda\xbe\xe2?'
p40
tp41
Rp42
ag2
(g6
S'n\xdb\xb6-\x89\xe0\xdb?'
p43
tp44
Rp45
ag2
(g6
S'\x00\x00\x00\xa04\xa6\xd0?'
p46
tp47
Rp48
ag2
(g6
S'I\x92$\t\xe7\xc2\xc4?'
p49
tp50
Rp51
ag2
(g6
S'I\x92$i\xbc\xcf\xbe?'
p52
tp53
Rp54
ag2
(g6
S'%I\x92$\x16r\xba?'
p55
tp56
Rp57
ag2
(g6
S'\x00\x00\x00\xe0\x0e\xbe\xb8?'
p58
tp59
Rp60
ag2
(g6
S'\xb7m\xdb6\xed+\xb8?'
p61
tp62
Rp63
aa(lp64
F0.020571922837785687
aF0.020571922837785687
aF0.02057209033703529
aF0.06382257407486815
aF0.7833638405299944
aF0.9482072220316453
aF0.9747412806590626
aF0.9778435342609665
aF0.9788371398096136
aa(lp65
F0.019097850337674867
aF0.019097850337674867
aF0.055799892466634506
aF0.7911019908747388
aF0.9517136245779064
aF0.9756511044782119
aF0.9802897370959961
aF0.9803757889130085
aF0.9805478925470333
aa.