(lp0
(lp1
cnumpy.core.multiarray
scalar
p2
(cnumpy
dtype
p3
(S'f8'
p4
I0
I1
tp5
Rp6
(I3
S'<'
p7
NNNI-1
I-1
I0
tp8
bS'DDD\x84\xa9?\xe6?'
p9
tp10
Rp11
aa(lp12
g2
(g6
S'%I\x92\xe4\x0b\x15\xe5?'
p13
tp14
Rp15
aa(lp16
F0.020571922837785687
aa(lp17
F0.019097850337674867
aa.