(lp0
(lp1
cnumpy.core.multiarray
scalar
p2
(cnumpy
dtype
p3
(S'f8'
p4
I0
I1
tp5
Rp6
(I3
S'<'
p7
NNNI-1
I-1
I0
tp8
bS'DDD\x84\xa9?\xe6?'
p9
tp10
Rp11
ag2
(g6
S'\xde\xdd\xdd\xbd\t\x15\xe5?'
p12
tp13
Rp14
ag2
(g6
S'\x89\x88\x88\x98g\xc0\xe2?'
p15
tp16
Rp17
ag2
(g6
S'\xde\xdd\xdd]\xdd\xf2\xdb?'
p18
tp19
Rp20
ag2
(g6
S'\xef\xee\xeen/\xce\xd0?'
p21
tp22
Rp23
ag2
(g6
S'DDDt\xc9\x1b\xc5?'
p24
tp25
Rp26
aa(lp27
g2
(g6
S'%I\x92\xe4\x0b\x15\xe5?'
p28
tp29
Rp30
ag2
(g6
S'\xb7m\xdb\xd6\xda\xbe\xe2?'
p31
tp32
Rp33
ag2
(g6
S'n\xdb\xb6-\x89\xe0\xdb?'
p34
tp35
Rp36
ag2
(g6
S'\x00\x00\x00\xa04\xa6\xd0?'
p37
tp38
Rp39
ag2
(g6
S'I\x92$\t\xe7\xc2\xc4?'
p40
tp41
Rp42
ag2
(g6
S'I\x92$i\xbc\xcf\xbe?'
p43
tp44
Rp45
aa(lp46
F0.020571922837785687
aF0.020571922837785687
aF0.02057209033703529
aF0.06382257407486815
aF0.7833638405299944
aF0.9482072220316453
aa(lp47
F0.019097850337674867
aF0.019097850337674867
aF0.055799892466634506
aF0.7911019908747388
aF0.9517136245779064
aF0.9756511044782119
aa.