(lp0
(lp1
cnumpy.core.multiarray
scalar
p2
(cnumpy
dtype
p3
(S'f8'
p4
I0
I1
tp5
Rp6
(I3
S'<'
p7
NNNI-1
I-1
I0
tp8
bS'DDD\x84\xa9?\xe6?'
p9
tp10
Rp11
ag2
(g6
S'\xde\xdd\xdd\xbd\t\x15\xe5?'
p12
tp13
Rp14
aa(lp15
g2
(g6
S'%I\x92\xe4\x0b\x15\xe5?'
p16
tp17
Rp18
ag2
(g6
S'\xb7m\xdb\xd6\xda\xbe\xe2?'
p19
tp20
Rp21
aa(lp22
F0.020571922837785687
aF0.020571922837785687
aa(lp23
F0.019097850337674867
aF0.019097850337674867
aa.